-----------------------BASIC OPS-----------------------

00010144 <main>:
#include <stdio.h>
int main(){
   10144:	fd010113          	addi	sp,sp,-48
   10148:	02812623          	sw	s0,44(sp)
   1014c:	03010413          	addi	s0,sp,48
  int *r = 0xABCD;
   10150:	0000b7b7          	lui	a5,0xb
   10154:	bcd78793          	addi	a5,a5,-1075 # abcd <register_fini-0x54a7>
   10158:	fef42623          	sw	a5,-20(s0)
  int a = 5;
   1015c:	00500793          	li	a5,5
   10160:	fef42423          	sw	a5,-24(s0)
  int b = 6;
   10164:	00600793          	li	a5,6
   10168:	fef42223          	sw	a5,-28(s0)
  int c = 3;
   1016c:	00300793          	li	a5,3
   10170:	fef42023          	sw	a5,-32(s0)
  int d = 0;
   10174:	fc042e23          	sw	zero,-36(s0)
  d = a+b-c;
   10178:	fe842703          	lw	a4,-24(s0)
   1017c:	fe442783          	lw	a5,-28(s0)
   10180:	00f70733          	add	a4,a4,a5
   10184:	fe042783          	lw	a5,-32(s0)
   10188:	40f707b3          	sub	a5,a4,a5
   1018c:	fcf42e23          	sw	a5,-36(s0)
  *r = c;
   10190:	fec42783          	lw	a5,-20(s0)
   10194:	fe042703          	lw	a4,-32(s0)
   10198:	00e7a023          	sw	a4,0(a5)
   1019c:	00000793          	li	a5,0
}

// BINARIO
11111101000000010000000100010011
00000010100000010010011000100011
00000011000000010000010000010011
00000000000000001011011110110111
10111100110101111000011110010011
11111110111101000010011000100011
00000000010100000000011110010011
11111110111101000010010000100011
00000000011000000000011110010011
00000000001100000000011110010011
11111110111101000010000000100011
11111100000001000010111000100011
11111110100001000010011100000011
11111110010001000010011110000011
00000000111101110000011100110011
11111110000001000010011110000011
01000000111101110000011110110011
11111100111101000010111000100011
11111110110001000010011110000011
11111110000001000010011100000011
00000000111001111010000000100011
00000000000000000000011110010011

-----------------------IF ELSE-----------------------

00010144 <main>:
#include <stdio.h>
int main(){
   10144:	fe010113          	addi	sp,sp,-32
   10148:	00812e23          	sw	s0,28(sp)
   1014c:	02010413          	addi	s0,sp,32
  char *r = 0xABCD;
   10150:	0000b7b7          	lui	a5,0xb
   10154:	bcd78793          	addi	a5,a5,-1075 # abcd <register_fini-0x54a7>
   10158:	fef42423          	sw	a5,-24(s0)
  char a = 'b';
   1015c:	06200793          	li	a5,98
   10160:	fef403a3          	sb	a5,-25(s0)
  char b = 'x';
   10164:	07800793          	li	a5,120
   10168:	fef407a3          	sb	a5,-17(s0)

  if (a == 'a') {
   1016c:	fe744703          	lbu	a4,-25(s0)
   10170:	06100793          	li	a5,97
   10174:	00f71863          	bne	a4,a5,10184 <main+0x40>
    b = 'd';
   10178:	06400793          	li	a5,100
   1017c:	fef407a3          	sb	a5,-17(s0)
   10180:	00c0006f          	j	1018c <main+0x48>
  }
  else {
    b = a;
   10184:	fe744783          	lbu	a5,-25(s0)
   10188:	fef407a3          	sb	a5,-17(s0)
  }
  *r = b;
   1018c:	fe842783          	lw	a5,-24(s0)
   10190:	fef44703          	lbu	a4,-17(s0)
   10194:	00e78023          	sb	a4,0(a5)
   10198:	00000793          	li	a5,0
}

//BINARIO
11111110000000010000000100010011
00000000100000010010111000100011
00000010000000010000010000010011
00000000000000001011011110110111
10111100110101111000011110010011
11111110111101000010010000100011
00000110001000000000011110010011
11111110111101000000001110100011
11111110011101000100011100000011
00000110000100000000011110010011
11111110111101000000011110100011
00000000110000000000000001101111
11111110011101000100011110000011
11111110111101000000011110100011
11111110100001000010011110000011
11111110111101000100011100000011
00000000111001111000000000100011
00000000000000000000011110010011

-----------------------GOTO SHIFT-----------------------
00010144 <main>:
#include <stdio.h>
int main(){
   10144:	fe010113          	addi	sp,sp,-32
   10148:	00812e23          	sw	s0,28(sp)
   1014c:	02010413          	addi	s0,sp,32
  int *r = 0xABCD;
   10150:	0000b7b7          	lui	a5,0xb
   10154:	bcd78793          	addi	a5,a5,-1075 # abcd <register_fini-0x54a7>
   10158:	fef42623          	sw	a5,-20(s0)
  unsigned int a = 99;
   1015c:	06300793          	li	a5,99
   10160:	fef42423          	sw	a5,-24(s0)
  unsigned int c = 0;
   10164:	fe042223          	sw	zero,-28(s0)
  goto generic_tag;
   10168:	00000013          	nop
  unsigned int b = a + 3;
  b = a + 7;
  generic_tag:
  c = a >> 2;
   1016c:	fe842783          	lw	a5,-24(s0)
   10170:	0027d793          	srli	a5,a5,0x2
   10174:	fef42223          	sw	a5,-28(s0)
  *r = c;
   10178:	fe442703          	lw	a4,-28(s0)
   1017c:	fec42783          	lw	a5,-20(s0)
   10180:	00e7a023          	sw	a4,0(a5)
   10184:	00000793          	li	a5,0
}

//BINARIO
11111110000000010000000100010011
00000000100000010010111000100011
00000010000000010000010000010011
00000000000000001011011110110111
10111100110101111000011110010011
11111110111101000010010000100011
00000110001100000000011110010011
11111110111101000010010000100011
11111110000001000010001000100011
00000000000000000000000000010011
11111110100001000010011110000011
00000000001001111101011110010011
11111110111101000010001000100011
11111110010001000010011100000011
11111110110001000010011110000011
00000000111001111010000000100011
00000000000000000000011110010011


-----------------------ARRAY-----------------------
00010144 <main>:
#include <stdio.h>
int main(){
   10144:	fd010113          	addi	sp,sp,-48
   10148:	02812623          	sw	s0,44(sp)
   1014c:	03010413          	addi	s0,sp,48
  int a[4] = {};
   10150:	fc042e23          	sw	zero,-36(s0)
   10154:	fe042023          	sw	zero,-32(s0)
   10158:	fe042223          	sw	zero,-28(s0)
   1015c:	fe042423          	sw	zero,-24(s0)
  int b = 21;
   10160:	01500793          	li	a5,21
   10164:	fef42623          	sw	a5,-20(s0)

  a[0] = b^10;
   10168:	fec42783          	lw	a5,-20(s0)
   1016c:	00a7c793          	xori	a5,a5,10
   10170:	fcf42e23          	sw	a5,-36(s0)
  a[1] = b&7;
   10174:	fec42783          	lw	a5,-20(s0)
   10178:	0077f793          	andi	a5,a5,7
   1017c:	fef42023          	sw	a5,-32(s0)
  a[2] = b << 1;
   10180:	fec42783          	lw	a5,-20(s0)
   10184:	00179793          	slli	a5,a5,0x1
   10188:	fef42223          	sw	a5,-28(s0)
  a[3] = b >> 1;
   1018c:	fec42783          	lw	a5,-20(s0)
   10190:	4017d793          	srai	a5,a5,0x1
   10194:	fef42423          	sw	a5,-24(s0)
   10198:	00000793          	li	a5,0

  /*printf("A0: %d A1: %d A2: %d A3: %d",
         a[0], a[1], a[2], a[3]);*/
}

//BINARIO
11111101000000010000000100010011
00000010100000010010011000100011
00000011000000010000010000010011
11111100000001000010111000100011
11111110000001000010000000100011
11111110000001000010001000100011
11111110000001000010010000100011
00000001010100000000011110010011
11111110111101000010011000100011
11111110110001000010011110000011
00000000101001111100011110010011
11111100111101000010111000100011
11111110110001000010011110000011
00000000011101111111011110010011
11111110111101000010000000100011
11111110110001000010011110000011
00000000000101111001011110010011
11111110111101000010001000100011
11111110110001000010011110000011
01000000000101111101011110010011
11111110111101000010010000100011
00000000000000000000011110010011


-----------------------WHILE-----------------------
00010144 <main>:
#include <stdio.h>
int main(){
   10144:	fe010113          	addi	sp,sp,-32
   10148:	00812e23          	sw	s0,28(sp)
   1014c:	02010413          	addi	s0,sp,32
  int *r = 0xABCD;
   10150:	0000b7b7          	lui	a5,0xb
   10154:	bcd78793          	addi	a5,a5,-1075 # abcd <register_fini-0x54a7>
   10158:	fef42423          	sw	a5,-24(s0)
  int a = 0;
   1015c:	fe042623          	sw	zero,-20(s0)
  int b = 2;
   10160:	00200793          	li	a5,2
   10164:	fef42223          	sw	a5,-28(s0)

  while (a != b){
   10168:	0100006f          	j	10178 <main+0x34>
      a++;
   1016c:	fec42783          	lw	a5,-20(s0)
   10170:	00178793          	addi	a5,a5,1
   10174:	fef42623          	sw	a5,-20(s0)
  while (a != b){
   10178:	fec42703          	lw	a4,-20(s0)
   1017c:	fe442783          	lw	a5,-28(s0)
   10180:	fef716e3          	bne	a4,a5,1016c <main+0x28>
  }
  *r = a;
   10184:	fe842783          	lw	a5,-24(s0)
   10188:	fec42703          	lw	a4,-20(s0)
   1018c:	00e7a023          	sw	a4,0(a5)
   10190:	00000793          	li	a5,0
}

//BINARIO
11111110000000010000000100010011
00000000100000010010111000100011
00000010000000010000010000010011
00000000000000001011011110110111
10111100110101111000011110010011
11111110111101000010010000100011
11111110000001000010011000100011
00000000001000000000011110010011
11111110111101000010001000100011
00000001000000000000000001101111
11111110110001000010011110000011
00000000000101111000011110010011
11111110111101000010011000100011
11111110110001000010011100000011
11111110010001000010011110000011
11111110111101110001011011100011
11111110100001000010011110000011
11111110110001000010011100000011
00000000111001111010000000100011
00000000000000000000011110010011


-----------------------FUNCTION-----------------------
00010144 <restalocal>:
#include <stdio.h>
int restalocal(int o1, int o2){
   10144:	fe010113          	addi	sp,sp,-32
   10148:	00812e23          	sw	s0,28(sp)
   1014c:	02010413          	addi	s0,sp,32
   10150:	fea42623          	sw	a0,-20(s0)
   10154:	feb42423          	sw	a1,-24(s0)
    return o1 - o2;
   10158:	fec42703          	lw	a4,-20(s0)
   1015c:	fe842783          	lw	a5,-24(s0)
   10160:	40f707b3          	sub	a5,a4,a5
}
   10164:	00078513          	mv	a0,a5
   10168:	01c12403          	lw	s0,28(sp)
   1016c:	02010113          	addi	sp,sp,32
   10170:	00008067          	ret

00010174 <main>:

int main(){
   10174:	fe010113          	addi	sp,sp,-32
   10178:	00112e23          	sw	ra,28(sp)
   1017c:	00812c23          	sw	s0,24(sp)
   10180:	02010413          	addi	s0,sp,32
  int *r = 0xABCD;
   10184:	0000b7b7          	lui	a5,0xb
   10188:	bcd78793          	addi	a5,a5,-1075 # abcd <register_fini-0x54a7>
   1018c:	fef42623          	sw	a5,-20(s0)
  int a = 55;
   10190:	03700793          	li	a5,55
   10194:	fef42423          	sw	a5,-24(s0)
  int b = 99;
   10198:	06300793          	li	a5,99
   1019c:	fef42223          	sw	a5,-28(s0)
  int c = 0;
   101a0:	fe042023          	sw	zero,-32(s0)
  c = restalocal(a, b);
   101a4:	fe442583          	lw	a1,-28(s0)
   101a8:	fe842503          	lw	a0,-24(s0)
   101ac:	f99ff0ef          	jal	ra,10144 <restalocal>
   101b0:	fea42023          	sw	a0,-32(s0)
  *r = c;
   101b4:	fec42783          	lw	a5,-20(s0)
   101b8:	fe042703          	lw	a4,-32(s0)
   101bc:	00e7a023          	sw	a4,0(a5)
   101c0:	00000793          	li	a5,0
}
